target datalayout = "e-m:e-p270:32:32-p271:32:32-p272:64:64-i64:64-i128:128-f80:128-n8:16:32:64-S128"
target triple = "x86_64-pc-linux-gnu"

%struct.FunctionCallInfoBaseData = type { ptr, ptr, ptr, i32, i8, i16, [0 x %struct.NullableDatum] }
%struct.NullableDatum = type { i64, i8 }
%struct.GISTENTRY = type { i64, ptr, ptr, i16, i8 }
%struct.BOX = type { %struct.Point, %struct.Point }
%struct.Point = type { double, double }

; Function Attrs: inlinehint nounwind uwtable
define internal i64 @PointerGetDatum(ptr noundef %0) #2 {
  %2 = alloca ptr, align 8
  store ptr %0, ptr %2, align 8
  %3 = load ptr, ptr %2, align 8
  %4 = ptrtoint ptr %3 to i64
  ret i64 %4
}

; Function Attrs: inlinehint nounwind uwtable
define internal ptr @DatumGetBoxP(i64 noundef %0) #2 {
  %2 = alloca i64, align 8
  store i64 %0, ptr %2, align 8
  %3 = load i64, ptr %2, align 8
  %4 = call ptr @DatumGetPointer(i64 noundef %3)
  ret ptr %4
}

; Function Attrs: inlinehint nounwind uwtable
define internal ptr @DatumGetPointer(i64 noundef %0) #2 {
  %2 = alloca i64, align 8
  store i64 %0, ptr %2, align 8
  %3 = load i64, ptr %2, align 8
  %4 = inttoptr i64 %3 to ptr
  ret ptr %4
}

; Function Attrs: nounwind uwtable
define dso_local i64 @gist_point_fetch(ptr noundef %0) #0 {
  %2 = alloca ptr, align 8
  %3 = alloca ptr, align 8
  %4 = alloca ptr, align 8
  %5 = alloca ptr, align 8
  %6 = alloca ptr, align 8
  store ptr %0, ptr %2, align 8
  call void @llvm.lifetime.start.p0(i64 8, ptr %3) #10
  %7 = load ptr, ptr %2, align 8
  %8 = getelementptr inbounds nuw %struct.FunctionCallInfoBaseData, ptr %7, i32 0, i32 6
  %9 = getelementptr inbounds [0 x %struct.NullableDatum], ptr %8, i64 0, i64 0
  %10 = getelementptr inbounds nuw %struct.NullableDatum, ptr %9, i32 0, i32 0
  %11 = load i64, ptr %10, align 8
  %12 = call ptr @DatumGetPointer(i64 noundef %11)
  store ptr %12, ptr %3, align 8
  call void @llvm.lifetime.start.p0(i64 8, ptr %4) #10
  %13 = load ptr, ptr %3, align 8
  %14 = getelementptr inbounds nuw %struct.GISTENTRY, ptr %13, i32 0, i32 0
  %15 = load i64, ptr %14, align 8
  %16 = call ptr @DatumGetBoxP(i64 noundef %15)
  store ptr %16, ptr %4, align 8
  call void @llvm.lifetime.start.p0(i64 8, ptr %5) #10
  call void @llvm.lifetime.start.p0(i64 8, ptr %6) #10
  %17 = call ptr @palloc(i64 noundef 32)
  store ptr %17, ptr %6, align 8
  %18 = call ptr @palloc(i64 noundef 16)
  store ptr %18, ptr %5, align 8
  %19 = load ptr, ptr %4, align 8
  %20 = getelementptr inbounds nuw %struct.BOX, ptr %19, i32 0, i32 0
  %21 = getelementptr inbounds nuw %struct.Point, ptr %20, i32 0, i32 0
  %22 = load double, ptr %21, align 8
  %23 = load ptr, ptr %5, align 8
  %24 = getelementptr inbounds nuw %struct.Point, ptr %23, i32 0, i32 0
  store double %22, ptr %24, align 8
  %25 = load ptr, ptr %4, align 8
  %26 = getelementptr inbounds nuw %struct.BOX, ptr %25, i32 0, i32 0
  %27 = getelementptr inbounds nuw %struct.Point, ptr %26, i32 0, i32 1
  %28 = load double, ptr %27, align 8
  %29 = load ptr, ptr %5, align 8
  %30 = getelementptr inbounds nuw %struct.Point, ptr %29, i32 0, i32 1
  store double %28, ptr %30, align 8
  br label %31

31:                                               ; preds = %1
  %32 = load ptr, ptr %5, align 8
  %33 = call i64 @PointerGetDatum(ptr noundef %32)
  %34 = load ptr, ptr %6, align 8
  %35 = getelementptr inbounds nuw %struct.GISTENTRY, ptr %34, i32 0, i32 0
  store i64 %33, ptr %35, align 8
  %36 = load ptr, ptr %3, align 8
  %37 = getelementptr inbounds nuw %struct.GISTENTRY, ptr %36, i32 0, i32 1
  %38 = load ptr, ptr %37, align 8
  %39 = load ptr, ptr %6, align 8
  %40 = getelementptr inbounds nuw %struct.GISTENTRY, ptr %39, i32 0, i32 1
  store ptr %38, ptr %40, align 8
  %41 = load ptr, ptr %3, align 8
  %42 = getelementptr inbounds nuw %struct.GISTENTRY, ptr %41, i32 0, i32 2
  %43 = load ptr, ptr %42, align 8
  %44 = load ptr, ptr %6, align 8
  %45 = getelementptr inbounds nuw %struct.GISTENTRY, ptr %44, i32 0, i32 2
  store ptr %43, ptr %45, align 8
  %46 = load ptr, ptr %3, align 8
  %47 = getelementptr inbounds nuw %struct.GISTENTRY, ptr %46, i32 0, i32 3
  %48 = load i16, ptr %47, align 8
  %49 = load ptr, ptr %6, align 8
  %50 = getelementptr inbounds nuw %struct.GISTENTRY, ptr %49, i32 0, i32 3
  store i16 %48, ptr %50, align 8
  %51 = load ptr, ptr %6, align 8
  %52 = getelementptr inbounds nuw %struct.GISTENTRY, ptr %51, i32 0, i32 4
  store i8 0, ptr %52, align 2
  br label %53

53:                                               ; preds = %31
  br label %54

54:                                               ; preds = %53
  %55 = load ptr, ptr %6, align 8
  %56 = call i64 @PointerGetDatum(ptr noundef %55)
  call void @llvm.lifetime.end.p0(i64 8, ptr %6) #10
  call void @llvm.lifetime.end.p0(i64 8, ptr %5) #10
  call void @llvm.lifetime.end.p0(i64 8, ptr %4) #10
  call void @llvm.lifetime.end.p0(i64 8, ptr %3) #10
  ret i64 %56
}