; Function Attrs: nounwind uwtable
define dso_local i64 @gist_point_fetch(ptr noundef readonly captures(none) %0) local_unnamed_addr #0 {
  %2 = getelementptr inbounds nuw i8, ptr %0, i64 32
  %3 = load i64, ptr %2, align 8
  %4 = inttoptr i64 %3 to ptr
  %5 = load i64, ptr %4, align 8
  %6 = inttoptr i64 %5 to ptr
  %7 = tail call ptr @palloc(i64 noundef 32) #16
  %8 = tail call ptr @palloc(i64 noundef 16) #16
  %9 = load double, ptr %6, align 8
  store double %9, ptr %8, align 8
  %10 = getelementptr inbounds nuw i8, ptr %6, i64 8
  %11 = load double, ptr %10, align 8
  %12 = getelementptr inbounds nuw i8, ptr %8, i64 8
  store double %11, ptr %12, align 8
  %13 = ptrtoint ptr %8 to i64
  store i64 %13, ptr %7, align 8
  %14 = getelementptr inbounds nuw i8, ptr %4, i64 8
  %15 = load ptr, ptr %14, align 8
  %16 = getelementptr inbounds nuw i8, ptr %7, i64 8
  store ptr %15, ptr %16, align 8
  %17 = getelementptr inbounds nuw i8, ptr %4, i64 16
  %18 = load ptr, ptr %17, align 8
  %19 = getelementptr inbounds nuw i8, ptr %7, i64 16
  store ptr %18, ptr %19, align 8
  %20 = getelementptr inbounds nuw i8, ptr %4, i64 24
  %21 = load i16, ptr %20, align 8
  %22 = getelementptr inbounds nuw i8, ptr %7, i64 24
  store i16 %21, ptr %22, align 8
  %23 = getelementptr inbounds nuw i8, ptr %7, i64 26
  store i8 0, ptr %23, align 2
  %24 = ptrtoint ptr %7 to i64
  ret i64 %24
}